target datalayout = "e-m:e-p270:32:32-p271:32:32-p272:64:64-i64:64-i128:128-f80:128-n8:16:32:64-S128"
target triple = "x86_64-pc-linux-gnu"

%struct._DOT11DECRYPT_KEY_ITEM = type { i8, %union.DOT11DECRYPT_KEY_ITEMDATA, %struct.DOT11DECRYPT_KEY_ITEMDATA_TK, %struct.DOT11DECRYPT_KEY_ITEMDATA_MSK, %struct.DOT11DECRYPT_KEY_ITEMDATA_PWD }
%union.DOT11DECRYPT_KEY_ITEMDATA = type { %struct.DOT11DECRYPT_KEY_ITEMDATA_WEP, [104 x i8] }
%struct.DOT11DECRYPT_KEY_ITEMDATA_WEP = type { [32 x i8], i64 }
%struct.DOT11DECRYPT_KEY_ITEMDATA_TK = type { [32 x i8], i8 }
%struct.DOT11DECRYPT_KEY_ITEMDATA_MSK = type { [128 x i8], i8 }
%struct.DOT11DECRYPT_KEY_ITEMDATA_PWD = type { [63 x i8], i64, [32 x i8], i64 }
%struct.DOT11DECRYPT_KEY_ITEMDATA_WPA = type { [48 x i8], [88 x i8], i8, i8, i8, i8 }

@.str = private unnamed_addr constant [13 x i8] c"dot11decrypt\00", align 1
@.str.1 = private unnamed_addr constant [26 x i8] c"epan/crypt/dot11decrypt.c\00", align 1
@__func__.Dot11DecryptGetKckLen = private unnamed_addr constant [22 x i8] c"Dot11DecryptGetKckLen\00", align 1
@.str.49 = private unnamed_addr constant [12 x i8] c"Unknown akm\00", align 1
@__func__.Dot11DecryptGetKekLen = private unnamed_addr constant [22 x i8] c"Dot11DecryptGetKekLen\00", align 1

; Function Attrs: null_pointer_is_valid sspstrong uwtable
define internal i32 @Dot11DecryptGetKekLen(i32 noundef %0) #0 {
  %2 = alloca i32, align 4
  %3 = alloca i32, align 4
  store i32 %0, ptr %3, align 4
  %4 = load i32, ptr %3, align 4
  switch i32 %4, label %17 [
    i32 1, label %5
    i32 2, label %6
    i32 3, label %7
    i32 4, label %8
    i32 5, label %9
    i32 6, label %10
    i32 8, label %11
    i32 9, label %12
    i32 11, label %13
    i32 12, label %14
    i32 13, label %15
    i32 18, label %16
  ]

5:                                                ; preds = %1
  store i32 128, ptr %2, align 4
  br label %20

6:                                                ; preds = %1
  store i32 128, ptr %2, align 4
  br label %20

7:                                                ; preds = %1
  store i32 128, ptr %2, align 4
  br label %20

8:                                                ; preds = %1
  store i32 128, ptr %2, align 4
  br label %20

9:                                                ; preds = %1
  store i32 128, ptr %2, align 4
  br label %20

10:                                               ; preds = %1
  store i32 128, ptr %2, align 4
  br label %20

11:                                               ; preds = %1
  store i32 128, ptr %2, align 4
  br label %20

12:                                               ; preds = %1
  store i32 128, ptr %2, align 4
  br label %20

13:                                               ; preds = %1
  store i32 128, ptr %2, align 4
  br label %20

14:                                               ; preds = %1
  store i32 256, ptr %2, align 4
  br label %20

15:                                               ; preds = %1
  store i32 256, ptr %2, align 4
  br label %20

16:                                               ; preds = %1
  store i32 128, ptr %2, align 4
  br label %20

17:                                               ; preds = %1
  br label %18

18:                                               ; preds = %17
  call void (ptr, i32, ptr, i64, ptr, ptr, ...) @ws_log_full(ptr noundef @.str, i32 noundef 5, ptr noundef @.str.1, i64 noundef 2408, ptr noundef @__func__.Dot11DecryptGetKekLen, ptr noundef @.str.49)
  br label %19

19:                                               ; preds = %18
  store i32 -1, ptr %2, align 4
  br label %20

20:                                               ; preds = %19, %16, %15, %14, %13, %12, %11, %10, %9, %8, %7, %6, %5
  %21 = load i32, ptr %2, align 4
  ret i32 %21
}

; Function Attrs: null_pointer_is_valid sspstrong uwtable
define internal i32 @Dot11DecryptGetKckLen(i32 noundef %0) #0 {
  %2 = alloca i32, align 4
  %3 = alloca i32, align 4
  store i32 %0, ptr %3, align 4
  %4 = load i32, ptr %3, align 4
  switch i32 %4, label %17 [
    i32 1, label %5
    i32 2, label %6
    i32 3, label %7
    i32 4, label %8
    i32 5, label %9
    i32 6, label %10
    i32 8, label %11
    i32 9, label %12
    i32 11, label %13
    i32 12, label %14
    i32 13, label %15
    i32 18, label %16
  ]

5:                                                ; preds = %1
  store i32 128, ptr %2, align 4
  br label %20

6:                                                ; preds = %1
  store i32 128, ptr %2, align 4
  br label %20

7:                                                ; preds = %1
  store i32 128, ptr %2, align 4
  br label %20

8:                                                ; preds = %1
  store i32 128, ptr %2, align 4
  br label %20

9:                                                ; preds = %1
  store i32 128, ptr %2, align 4
  br label %20

10:                                               ; preds = %1
  store i32 128, ptr %2, align 4
  br label %20

11:                                               ; preds = %1
  store i32 128, ptr %2, align 4
  br label %20

12:                                               ; preds = %1
  store i32 128, ptr %2, align 4
  br label %20

13:                                               ; preds = %1
  store i32 128, ptr %2, align 4
  br label %20

14:                                               ; preds = %1
  store i32 192, ptr %2, align 4
  br label %20

15:                                               ; preds = %1
  store i32 192, ptr %2, align 4
  br label %20

16:                                               ; preds = %1
  store i32 128, ptr %2, align 4
  br label %20

17:                                               ; preds = %1
  br label %18

18:                                               ; preds = %17
  call void (ptr, i32, ptr, i64, ptr, ptr, ...) @ws_log_full(ptr noundef @.str, i32 noundef 5, ptr noundef @.str.1, i64 noundef 2385, ptr noundef @__func__.Dot11DecryptGetKckLen, ptr noundef @.str.49)
  br label %19

19:                                               ; preds = %18
  store i32 -1, ptr %2, align 4
  br label %20

20:                                               ; preds = %19, %16, %15, %14, %13, %12, %11, %10, %9, %8, %7, %6, %5
  %21 = load i32, ptr %2, align 4
  ret i32 %21
}

; Function Attrs: null_pointer_is_valid sspstrong uwtable
define hidden i32 @Dot11DecryptGetKEK(ptr noundef %0, ptr noundef %1) #0 {
  %3 = alloca i32, align 4
  %4 = alloca ptr, align 8
  %5 = alloca ptr, align 8
  store ptr %0, ptr %4, align 8
  store ptr %1, ptr %5, align 8
  %6 = load ptr, ptr %4, align 8
  %7 = icmp ne ptr %6, null
  br i1 %7, label %8, label %11

8:                                                ; preds = %2
  %9 = load ptr, ptr %5, align 8
  %10 = icmp ne ptr %9, null
  br i1 %10, label %12, label %11

11:                                               ; preds = %8, %2
  store i32 0, ptr %3, align 4
  br label %35

12:                                               ; preds = %8
  %13 = load ptr, ptr %4, align 8
  %14 = getelementptr inbounds nuw %struct._DOT11DECRYPT_KEY_ITEM, ptr %13, i32 0, i32 1
  %15 = getelementptr inbounds nuw %struct.DOT11DECRYPT_KEY_ITEMDATA_WPA, ptr %14, i32 0, i32 1
  %16 = getelementptr inbounds [88 x i8], ptr %15, i64 0, i64 0
  %17 = load ptr, ptr %4, align 8
  %18 = getelementptr inbounds nuw %struct._DOT11DECRYPT_KEY_ITEM, ptr %17, i32 0, i32 1
  %19 = getelementptr inbounds nuw %struct.DOT11DECRYPT_KEY_ITEMDATA_WPA, ptr %18, i32 0, i32 4
  %20 = load i8, ptr %19, align 2
  %21 = zext i8 %20 to i32
  %22 = call i32 @Dot11DecryptGetKckLen(i32 noundef %21)
  %23 = sdiv i32 %22, 8
  %24 = add i32 0, %23
  %25 = sext i32 %24 to i64
  %26 = getelementptr i8, ptr %16, i64 %25
  %27 = load ptr, ptr %5, align 8
  store ptr %26, ptr %27, align 8
  %28 = load ptr, ptr %4, align 8
  %29 = getelementptr inbounds nuw %struct._DOT11DECRYPT_KEY_ITEM, ptr %28, i32 0, i32 1
  %30 = getelementptr inbounds nuw %struct.DOT11DECRYPT_KEY_ITEMDATA_WPA, ptr %29, i32 0, i32 4
  %31 = load i8, ptr %30, align 2
  %32 = zext i8 %31 to i32
  %33 = call i32 @Dot11DecryptGetKekLen(i32 noundef %32)
  %34 = sdiv i32 %33, 8
  store i32 %34, ptr %3, align 4
  br label %35

35:                                               ; preds = %12, %11
  %36 = load i32, ptr %3, align 4
  ret i32 %36
}