; Function Attrs: null_pointer_is_valid sspstrong uwtable
define hidden range(i32 0, 33) i32 @Dot11DecryptGetKEK(ptr noundef %0, ptr noundef writeonly captures(address_is_null) %1) local_unnamed_addr #0 {
  %3 = icmp ne ptr %0, null
  %4 = icmp ne ptr %1, null
  %or.cond = and i1 %3, %4
  br i1 %or.cond, label %5, label %Dot11DecryptGetKekLen.exit

5:                                                ; preds = %2
  %6 = getelementptr inbounds nuw i8, ptr %0, i64 56
  %7 = getelementptr inbounds nuw i8, ptr %0, i64 146
  %8 = load i8, ptr %7, align 2
  %switch.tableidx = add i8 %8, -1
  %9 = icmp ult i8 %switch.tableidx, 18
  br i1 %9, label %switch.hole_check, label %10

10:                                               ; preds = %switch.hole_check, %5
  tail call void (ptr, i32, ptr, i64, ptr, ptr, ...) @ws_log_full(ptr noundef nonnull @.str, i32 noundef 5, ptr noundef nonnull @.str.1, i64 noundef 2385, ptr noundef nonnull @__func__.Dot11DecryptGetKckLen, ptr noundef nonnull @.str.49)
  br label %Dot11DecryptGetKckLen.exit

switch.hole_check:                                ; preds = %5
  %switch.maskindex = zext nneg i8 %switch.tableidx to i32
  %switch.shifted = lshr i32 138687, %switch.maskindex
  %switch.lobit = trunc i32 %switch.shifted to i1
  br i1 %switch.lobit, label %switch.lookup, label %10

switch.lookup:                                    ; preds = %switch.hole_check
  %11 = zext nneg i8 %switch.tableidx to i64
  %switch.gep = getelementptr inbounds nuw [18 x i64], ptr @switch.table.Dot11DecryptScanFtAssocForKeys.12, i64 0, i64 %11
  %switch.load = load i64, ptr %switch.gep, align 8
  br label %Dot11DecryptGetKckLen.exit

Dot11DecryptGetKckLen.exit:                       ; preds = %switch.lookup, %10
  %.0.i = phi i64 [ 0, %10 ], [ %switch.load, %switch.lookup ]
  %12 = getelementptr i8, ptr %6, i64 %.0.i
  store ptr %12, ptr %1, align 8
  %13 = load i8, ptr %7, align 2
  %switch.tableidx13 = add i8 %13, -1
  %14 = icmp ult i8 %switch.tableidx13, 18
  br i1 %14, label %switch.hole_check14, label %15

15:                                               ; preds = %switch.hole_check14, %Dot11DecryptGetKckLen.exit
  tail call void (ptr, i32, ptr, i64, ptr, ptr, ...) @ws_log_full(ptr noundef nonnull @.str, i32 noundef 5, ptr noundef nonnull @.str.1, i64 noundef 2408, ptr noundef nonnull @__func__.Dot11DecryptGetKekLen, ptr noundef nonnull @.str.49)
  br label %Dot11DecryptGetKekLen.exit

switch.hole_check14:                              ; preds = %Dot11DecryptGetKckLen.exit
  %switch.maskindex16 = zext nneg i8 %switch.tableidx13 to i32
  %switch.shifted17 = lshr i32 138687, %switch.maskindex16
  %switch.lobit18 = trunc i32 %switch.shifted17 to i1
  br i1 %switch.lobit18, label %switch.lookup15, label %15

switch.lookup15:                                  ; preds = %switch.hole_check14
  %16 = zext nneg i8 %switch.tableidx13 to i64
  %switch.gep19 = getelementptr inbounds nuw [18 x i32], ptr @switch.table.Dot11DecryptGetKEK.4, i64 0, i64 %16
  %switch.load20 = load i32, ptr %switch.gep19, align 4
  br label %Dot11DecryptGetKekLen.exit

Dot11DecryptGetKekLen.exit:                       ; preds = %switch.lookup15, %15, %2
  %.0 = phi i32 [ 0, %2 ], [ 0, %15 ], [ %switch.load20, %switch.lookup15 ]
  ret i32 %.0
}